; ModuleID = '50/2270.c'
source_filename = "50/2270.c"
target datalayout = "e-m:e-p270:32:32-p271:32:32-p272:64:64-i64:64-f80:128-n8:16:32:64-S128"
target triple = "x86_64-pc-linux-gnu"

@.str = private unnamed_addr constant [3 x i8] c"%d\00", align 1
@.str.1 = private unnamed_addr constant [4 x i8] c"%d\0A\00", align 1

; Function Attrs: noinline nounwind uwtable
define dso_local i32 @main() #0 {
  %1 = alloca i32, align 4
  %2 = alloca i32, align 4
  %3 = alloca [13 x i32], align 16
  %4 = alloca i32, align 4
  %5 = alloca i32, align 4
  %6 = alloca i32, align 4
  %7 = alloca i32, align 4
  %8 = alloca i32, align 4
  store i32 0, i32* %1, align 4
  %9 = call i32 (i8*, ...) @__isoc99_scanf(i8* getelementptr inbounds ([3 x i8], [3 x i8]* @.str, i64 0, i64 0), i32* %2)
  %10 = getelementptr inbounds [13 x i32], [13 x i32]* %3, i64 0, i64 0
  store i32 0, i32* %10, align 16
  %11 = getelementptr inbounds [13 x i32], [13 x i32]* %3, i64 0, i64 1
  store i32 31, i32* %11, align 4
  %12 = getelementptr inbounds [13 x i32], [13 x i32]* %3, i64 0, i64 2
  store i32 28, i32* %12, align 8
  %13 = getelementptr inbounds [13 x i32], [13 x i32]* %3, i64 0, i64 3
  store i32 31, i32* %13, align 4
  %14 = getelementptr inbounds [13 x i32], [13 x i32]* %3, i64 0, i64 4
  store i32 30, i32* %14, align 16
  %15 = getelementptr inbounds [13 x i32], [13 x i32]* %3, i64 0, i64 5
  store i32 31, i32* %15, align 4
  %16 = getelementptr inbounds [13 x i32], [13 x i32]* %3, i64 0, i64 6
  store i32 30, i32* %16, align 8
  %17 = getelementptr inbounds [13 x i32], [13 x i32]* %3, i64 0, i64 7
  store i32 31, i32* %17, align 4
  %18 = getelementptr inbounds [13 x i32], [13 x i32]* %3, i64 0, i64 8
  store i32 31, i32* %18, align 16
  %19 = getelementptr inbounds [13 x i32], [13 x i32]* %3, i64 0, i64 9
  store i32 30, i32* %19, align 4
  %20 = getelementptr inbounds [13 x i32], [13 x i32]* %3, i64 0, i64 10
  store i32 31, i32* %20, align 8
  %21 = getelementptr inbounds [13 x i32], [13 x i32]* %3, i64 0, i64 11
  store i32 30, i32* %21, align 4
  %22 = getelementptr inbounds [13 x i32], [13 x i32]* %3, i64 0, i64 12
  store i32 31, i32* %22, align 16
  store i32 0, i32* %4, align 4
  store i32 1, i32* %5, align 4
  store i32 1, i32* %6, align 4
  br label %23

23:                                               ; preds = %56, %0
  %24 = load i32, i32* %6, align 4
  %25 = icmp slt i32 %24, 13
  br i1 %25, label %26, label %59

26:                                               ; preds = %23
  store i32 0, i32* %7, align 4
  store i32 0, i32* %8, align 4
  br label %27

27:                                               ; preds = %38, %26
  %28 = load i32, i32* %8, align 4
  %29 = load i32, i32* %6, align 4
  %30 = icmp slt i32 %28, %29
  br i1 %30, label %31, label %41

31:                                               ; preds = %27
  %32 = load i32, i32* %7, align 4
  %33 = load i32, i32* %8, align 4
  %34 = sext i32 %33 to i64
  %35 = getelementptr inbounds [13 x i32], [13 x i32]* %3, i64 0, i64 %34
  %36 = load i32, i32* %35, align 4
  %37 = add nsw i32 %32, %36
  store i32 %37, i32* %7, align 4
  br label %38

38:                                               ; preds = %31
  %39 = load i32, i32* %8, align 4
  %40 = add nsw i32 %39, 1
  store i32 %40, i32* %8, align 4
  br label %27

41:                                               ; preds = %27
  %42 = load i32, i32* %7, align 4
  %43 = add nsw i32 %42, 13
  store i32 %43, i32* %7, align 4
  %44 = load i32, i32* %7, align 4
  %45 = sub nsw i32 %44, 1
  %46 = srem i32 %45, 7
  %47 = load i32, i32* %2, align 4
  %48 = srem i32 %47, 7
  %49 = add nsw i32 %46, %48
  %50 = srem i32 %49, 7
  %51 = icmp eq i32 %50, 5
  br i1 %51, label %52, label %55

52:                                               ; preds = %41
  %53 = load i32, i32* %6, align 4
  %54 = call i32 (i8*, ...) @printf(i8* getelementptr inbounds ([4 x i8], [4 x i8]* @.str.1, i64 0, i64 0), i32 %53)
  br label %55

55:                                               ; preds = %52, %41
  br label %56

56:                                               ; preds = %55
  %57 = load i32, i32* %6, align 4
  %58 = add nsw i32 %57, 1
  store i32 %58, i32* %6, align 4
  br label %23

59:                                               ; preds = %23
  %60 = load i32, i32* %1, align 4
  ret i32 %60
}

declare dso_local i32 @__isoc99_scanf(i8*, ...) #1

declare dso_local i32 @printf(i8*, ...) #1


!llvm.module.flags = !{!0}
!llvm.ident = !{!1}

!0 = !{i32 1, !"wchar_size", i32 4}
!1 = !{!"clang version 10.0.0-4ubuntu1 "}
